
mbr.asm:     file format binary


Disassembly of section .data:

00000000 <.data>:
   0:	3b e7                	cmp    %di,%sp
   2:	a8 8b                	test   $0x8b,%al
   4:	e5 ba                	in     $0xba,%ax
   6:	8f                   	(bad)  
   7:	e6 ba                	out    %al,$0xba
   9:	90                   	nop
   a:	e4 bb                	in     $0xbb,%al
   c:	a3 e7 a0             	mov    %ax,0xa0e7
   f:	81 ef bc 88          	sub    $0x88bc,%di
  13:	6d                   	insw   (%dx),%es:(%di)
  14:	79 6f                	jns    0x85
  16:	73 31                	jae    0x49
  18:	2e 61                	cs popa 
  1a:	73 6d                	jae    0x89
  1c:	ef                   	out    %ax,(%dx)
  1d:	bc 89 0d             	mov    $0xd89,%sp
  20:	0a 3b                	or     (%bp,%di),%bh
  22:	20 6f 72             	and    %ch,0x72(%bx)
  25:	67 20 20             	and    %ah,(%eax)
  28:	37                   	aaa    
  29:	63 30                	arpl   %si,(%bx,%si)
  2b:	30 68 09             	xor    %ch,0x9(%bx,%si)
  2e:	09 3b                	or     %di,(%bp,%di)
  30:	20 42 49             	and    %al,0x49(%bp,%si)
  33:	4f                   	dec    %di
  34:	53                   	push   %bx
  35:	e5 b0                	in     $0xb0,%ax
  37:	86 e6                	xchg   %ah,%dh
  39:	8a 8a e5 bc          	mov    -0x431b(%bp,%si),%cl
  3d:	95                   	xchg   %ax,%bp
  3e:	e5 af                	in     $0xaf,%ax
  40:	bc e6 89             	mov    $0x89e6,%sp
  43:	87 e5                	xchg   %sp,%bp
  45:	8c ba e5 8a          	mov    %?,-0x751b(%bp,%si)
  49:	a0 e8 bd             	mov    0xbde8,%al
  4c:	bd e5 88             	mov    $0x88e5,%bp
  4f:	b0 30                	mov    $0x30,%al
  51:	3a 37                	cmp    (%bx),%dh
  53:	43                   	inc    %bx
  54:	30 30                	xor    %dh,(%bx,%si)
  56:	68 e5 a4             	push   $0xa4e5
  59:	84 ef                	test   %ch,%bh
  5b:	bc 8c e5             	mov    $0xe58c,%sp
  5e:	b9 b6 e5             	mov    $0xe5b6,%cx
  61:	bc 80 e5             	mov    $0xe580,%sp
  64:	a7                   	cmpsw  %es:(%di),%ds:(%si)
  65:	8b e6                	mov    %si,%sp
  67:	89 a7 e8 a1          	mov    %sp,-0x5e18(%bx)
  6b:	8c 0d                	mov    %cs,(%di)
  6d:	0a 25                	or     (%di),%ah
  6f:	69 6e 63 6c 75       	imul   $0x756c,0x63(%bp),%bp
  74:	64 65 20 22          	fs and %ah,%gs:(%bp,%si)
  78:	2e 2e 2f             	cs cs das 
  7b:	69 6e 63 6c 75       	imul   $0x756c,0x63(%bp),%bp
  80:	64 65 2f             	fs gs das 
  83:	6d                   	insw   (%dx),%es:(%di)
  84:	61                   	popa   
  85:	63 72 6f             	arpl   %si,0x6f(%bp,%si)
  88:	2e 69 6e 63 22 0d    	imul   $0xd22,%cs:0x63(%bp),%bp
  8e:	0a 73 65             	or     0x65(%bp,%di),%dh
  91:	63 74 69             	arpl   %si,0x69(%si)
  94:	6f                   	outsw  %ds:(%si),(%dx)
  95:	6e                   	outsb  %ds:(%si),(%dx)
  96:	20 6d 79             	and    %ch,0x79(%di)
  99:	5f                   	pop    %di
  9a:	6d                   	insw   (%dx),%es:(%di)
  9b:	62 72 20             	bound  %si,0x20(%bp,%si)
  9e:	76 73                	jbe    0x113
  a0:	74 61                	je     0x103
  a2:	72 74                	jb     0x118
  a4:	3d 30 78             	cmp    $0x7830,%ax
  a7:	37                   	aaa    
  a8:	63 30                	arpl   %si,(%bx,%si)
  aa:	30 0d                	xor    %cl,(%di)
  ac:	0a 0d                	or     (%di),%cl
  ae:	0a 53 74             	or     0x74(%bp,%di),%dl
  b1:	61                   	popa   
  b2:	72 74                	jb     0x128
  b4:	3a 0d                	cmp    (%di),%cl
  b6:	0a 09                	or     (%bx,%di),%cl
  b8:	6d                   	insw   (%dx),%es:(%di)
  b9:	6f                   	outsw  %ds:(%si),(%dx)
  ba:	76 09                	jbe    0xc5
  bc:	61                   	popa   
  bd:	78 2c                	js     0xeb
  bf:	20 30                	and    %dh,(%bx,%si)
  c1:	36 30 30             	xor    %dh,%ss:(%bx,%si)
  c4:	68 20 20             	push   $0x2020
  c7:	20 23                	and    %ah,(%bp,%di)
  c9:	20 25                	and    %ah,(%di)
  cb:	61                   	popa   
  cc:	68 3d 36             	push   $0x363d
  cf:	2c 20                	sub    $0x20,%al
  d1:	25 61 6c             	and    $0x6c61,%ax
  d4:	3d 30 0d             	cmp    $0xd30,%ax
  d7:	0a 09                	or     (%bx,%di),%cl
  d9:	6d                   	insw   (%dx),%es:(%di)
  da:	6f                   	outsw  %ds:(%si),(%dx)
  db:	76 09                	jbe    0xe6
  dd:	62 78 2c             	bound  %di,0x2c(%bx,%si)
  e0:	20 30                	and    %dh,(%bx,%si)
  e2:	37                   	aaa    
  e3:	30 30                	xor    %dh,(%bx,%si)
  e5:	68 20 20             	push   $0x2020
  e8:	20 23                	and    %ah,(%bp,%di)
  ea:	20 42 6c             	and    %al,0x6c(%bp,%si)
  ed:	61                   	popa   
  ee:	63 6b 20             	arpl   %bp,0x20(%bp,%di)
  f1:	77 68                	ja     0x15b
  f3:	69 74 65 0d 0a       	imul   $0xa0d,0x65(%si),%si
  f8:	09 6d 6f             	or     %bp,0x6f(%di)
  fb:	76 09                	jbe    0x106
  fd:	63 78 2c             	arpl   %di,0x2c(%bx,%si)
 100:	20 30                	and    %dh,(%bx,%si)
 102:	20 20                	and    %ah,(%bx,%si)
 104:	20 20                	and    %ah,(%bx,%si)
 106:	20 20                	and    %ah,(%bx,%si)
 108:	20 20                	and    %ah,(%bx,%si)
 10a:	23 20                	and    (%bx,%si),%sp
 10c:	54                   	push   %sp
 10d:	6f                   	outsw  %ds:(%si),(%dx)
 10e:	70 20                	jo     0x130
 110:	6c                   	insb   (%dx),%es:(%di)
 111:	65 66 74 3a          	gs data32 je 0x14f
 115:	20 28                	and    %ch,(%bx,%si)
 117:	30 2c                	xor    %ch,(%si)
 119:	30 29                	xor    %ch,(%bx,%di)
 11b:	0d 0a 09             	or     $0x90a,%ax
 11e:	6d                   	insw   (%dx),%es:(%di)
 11f:	6f                   	outsw  %ds:(%si),(%dx)
 120:	76 09                	jbe    0x12b
 122:	64 78 2c             	fs js  0x151
 125:	20 31                	and    %dh,(%bx,%di)
 127:	38 34                	cmp    %dh,(%si)
 129:	66 68 20 20 20 23    	pushl  $0x23202020
 12f:	20 42 6f             	and    %al,0x6f(%bp,%si)
 132:	74 74                	je     0x1a8
 134:	6f                   	outsw  %ds:(%si),(%dx)
 135:	6d                   	insw   (%dx),%es:(%di)
 136:	20 72 69             	and    %dh,0x69(%bp,%si)
 139:	67 68 74 3a          	addr32 push $0x3a74
 13d:	20 28                	and    %ch,(%bx,%si)
 13f:	38 30                	cmp    %dh,(%bx,%si)
 141:	2c 35                	sub    $0x35,%al
 143:	30 29                	xor    %ch,(%bx,%di)
 145:	0d 0a 09             	or     $0x90a,%ax
 148:	69 6e 74 09 31       	imul   $0x3109,0x74(%bp),%bp
 14d:	30 68 20             	xor    %ch,0x20(%bx,%si)
 150:	20 20                	and    %ah,(%bx,%si)
 152:	20 20                	and    %ah,(%bx,%si)
 154:	20 20                	and    %ah,(%bx,%si)
 156:	20 20                	and    %ah,(%bx,%si)
 158:	23 20                	and    (%bx,%si),%sp
 15a:	42                   	inc    %dx
 15b:	49                   	dec    %cx
 15c:	4f                   	dec    %di
 15d:	53                   	push   %bx
 15e:	20 69 6e             	and    %ch,0x6e(%bx,%di)
 161:	74 20                	je     0x183
 163:	31 30                	xor    %si,(%bx,%si)
 165:	68 2c 20             	push   $0x202c
 168:	61                   	popa   
 169:	68 3d 36             	push   $0x363d
 16c:	3a 20                	cmp    (%bx,%si),%ah
 16e:	49                   	dec    %cx
 16f:	6e                   	outsb  %ds:(%si),(%dx)
 170:	69 74 69 61 6c       	imul   $0x6c61,0x69(%si),%si
 175:	69 7a 65 20 73       	imul   $0x7320,0x65(%bp,%si),%di
 17a:	63 72 65             	arpl   %si,0x65(%bp,%si)
 17d:	65 6e                	outsb  %gs:(%si),(%dx)
 17f:	0d 0a 0d             	or     $0xd0a,%ax
 182:	0a 09                	or     (%bx,%di),%cl
 184:	6d                   	insw   (%dx),%es:(%di)
 185:	6f                   	outsw  %ds:(%si),(%dx)
 186:	76 20                	jbe    0x1a8
 188:	65 61                	gs popa 
 18a:	78 2c                	js     0x1b8
 18c:	20 63 73             	and    %ah,0x73(%bp,%di)
 18f:	09 20                	or     %sp,(%bx,%si)
 191:	20 20                	and    %ah,(%bx,%si)
 193:	20 20                	and    %ah,(%bx,%si)
 195:	20 20                	and    %ah,(%bx,%si)
 197:	3b 20                	cmp    (%bx,%si),%sp
 199:	e7 bd                	out    %ax,$0xbd
 19b:	ae                   	scas   %es:(%di),%al
 19c:	e5 85                	in     $0x85,%ax
 19e:	b6 e4                	mov    $0xe4,%dh
 1a0:	bb 96 e6             	mov    $0xe696,%bx
 1a3:	ae                   	scas   %es:(%di),%al
 1a4:	b5 e5                	mov    $0xe5,%ch
 1a6:	af                   	scas   %es:(%di),%ax
 1a7:	84 e5                	test   %ah,%ch
 1a9:	ad                   	lods   %ds:(%si),%ax
 1aa:	98                   	cbtw   
 1ab:	e5 99                	in     $0x99,%ax
 1ad:	a8 e5                	test   $0xe5,%al
 1af:	80 bc e4 b8 8e       	cmpb   $0x8e,-0x471c(%si)
 1b4:	43                   	inc    %bx
 1b5:	53                   	push   %bx
 1b6:	e7 9b                	out    %ax,$0x9b
 1b8:	b8 e5 90             	mov    $0x90e5,%ax
 1bb:	8c 0d                	mov    %cs,(%di)
 1bd:	0a 09                	or     (%bx,%di),%cl
 1bf:	6d                   	insw   (%dx),%es:(%di)
 1c0:	6f                   	outsw  %ds:(%si),(%dx)
 1c1:	76 20                	jbe    0x1e3
 1c3:	64 73 2c             	fs jae 0x1f2
 1c6:	20 61 78             	and    %ah,0x78(%bx,%di)
 1c9:	09 20                	or     %sp,(%bx,%si)
 1cb:	20 20                	and    %ah,(%bx,%si)
 1cd:	20 20                	and    %ah,(%bx,%si)
 1cf:	20 20                	and    %ah,(%bx,%si)
 1d1:	3b 20                	cmp    (%bx,%si),%sp
 1d3:	e6 95                	out    %al,$0x95
 1d5:	b0 e6                	mov    $0xe6,%al
 1d7:	8d ae e6 ae          	lea    -0x511a(%bp),%bp
 1db:	b5 0d                	mov    $0xd,%ch
 1dd:	0a 09                	or     (%bx,%di),%cl
 1df:	6d                   	insw   (%dx),%es:(%di)
 1e0:	6f                   	outsw  %ds:(%si),(%dx)
 1e1:	76 20                	jbe    0x203
 1e3:	65 73 2c             	gs jae 0x212
 1e6:	20 61 78             	and    %ah,0x78(%bx,%di)
 1e9:	09 09                	or     %cx,(%bx,%di)
 1eb:	20 3b                	and    %bh,(%bp,%di)
 1ed:	20 e7                	and    %ah,%bh
 1ef:	bd ae 45             	mov    $0x45ae,%bp
 1f2:	53                   	push   %bx
 1f3:	3d 44 53             	cmp    $0x5344,%ax
 1f6:	0d 0a 20             	or     $0x200a,%ax
 1f9:	20 20                	and    %ah,(%bx,%si)
 1fb:	20 3b                	and    %bh,(%bp,%di)
 1fd:	20 e6                	and    %ah,%dh
 1ff:	98                   	cbtw   
 200:	be e7 a4             	mov    $0xa4e7,%si
 203:	ba e5 ad             	mov    $0xade5,%dx
 206:	97                   	xchg   %ax,%di
 207:	e7 ac                	out    %ax,$0xac
 209:	a6                   	cmpsb  %es:(%di),%ds:(%si)
 20a:	e4 b8                	in     $0xb8,%al
 20c:	b2 0d                	mov    $0xd,%dl
 20e:	0a 20                	or     (%bx,%si),%ah
 210:	20 20                	and    %ah,(%bx,%si)
 212:	20 3b                	and    %bh,(%bp,%di)
 214:	20 e6                	and    %ah,%dh
 216:	ad                   	lods   %ds:(%si),%ax
 217:	a4                   	movsb  %ds:(%si),%es:(%di)
 218:	e6 97                	out    %al,$0x97
 21a:	b6 65                	mov    $0x65,%dh
 21c:	73 20                	jae    0x23e
 21e:	e5 b0                	in     $0xb0,%ax
 220:	b1 e6                	mov    $0xe6,%cl
 222:	98                   	cbtw   
 223:	af                   	scas   %es:(%di),%ax
 224:	30 ef                	xor    %ch,%bh
 226:	bc 8c e4             	mov    $0xe48c,%sp
 229:	b8 8e 63             	mov    $0x638e,%ax
 22c:	73 e7                	jae    0x215
 22e:	9b                   	fwait
 22f:	b8 e5 90             	mov    $0x90e5,%ax
 232:	8c 0d                	mov    %cs,(%di)
 234:	0a 09                	or     (%bx,%di),%cl
 236:	6d                   	insw   (%dx),%es:(%di)
 237:	6f                   	outsw  %ds:(%si),(%dx)
 238:	76 20                	jbe    0x25a
 23a:	65 61                	gs popa 
 23c:	78 2c                	js     0x26a
 23e:	20 31                	and    %dh,(%bx,%di)
 240:	33 30                	xor    (%bx,%si),%si
 242:	31 68 09             	xor    %bp,0x9(%bx,%si)
 245:	09 20                	or     %sp,(%bx,%si)
 247:	3b 20                	cmp    (%bx,%si),%sp
 249:	41                   	inc    %cx
 24a:	48                   	dec    %ax
 24b:	20 3d                	and    %bh,(%di)
 24d:	20 31                	and    %dh,(%bx,%di)
 24f:	33 68 ef             	xor    -0x11(%bx,%si),%bp
 252:	bc 88 e5             	mov    $0xe588,%sp
 255:	8a 9f e8 83          	mov    -0x7c18(%bx),%bl
 259:	bd e5 8f             	mov    $0x8fe5,%bp
 25c:	b7 ef                	mov    $0xef,%bh
 25e:	bc 89 e3             	mov    $0xe389,%sp
 261:	80 81 41 4c 20       	addb   $0x20,0x4c41(%bx,%di)
 266:	3d 20 30             	cmp    $0x3020,%ax
 269:	31 68 ef             	xor    %bp,-0x11(%bx,%si)
 26c:	bc 88 e5             	mov    $0xe588,%sp
 26f:	85 89 e6 a0          	test   %cx,-0x5f1a(%bx,%di)
 273:	87 e7                	xchg   %sp,%di
 275:	bd ae e4             	mov    $0xe4ae,%bp
 278:	ba 8e e4             	mov    $0xe48e,%dx
 27b:	b8 b2 e5             	mov    $0xe5b2,%ax
 27e:	b0 be                	mov    $0xbe,%al
 280:	ef                   	out    %ax,(%dx)
 281:	bc 89 0d             	mov    $0xd89,%sp
 284:	0a 09                	or     (%bx,%di),%cl
 286:	6d                   	insw   (%dx),%es:(%di)
 287:	6f                   	outsw  %ds:(%si),(%dx)
 288:	76 20                	jbe    0x2aa
 28a:	65 62 78 2c          	bound  %di,%gs:0x2c(%bx,%si)
 28e:	20 30                	and    %dh,(%bx,%si)
 290:	30 30                	xor    %dh,(%bx,%si)
 292:	37                   	aaa    
 293:	68 09 09             	push   $0x909
 296:	20 3b                	and    %bh,(%bp,%di)
 298:	20 e9                	and    %ch,%cl
 29a:	a1 b5 e5             	mov    0xe5b5,%ax
 29d:	8f                   	(bad)  
 29e:	b7 e4                	mov    $0xe4,%bh
 2a0:	b8 ba 30             	mov    $0x30ba,%ax
 2a3:	28 42 48             	sub    %al,0x48(%bp,%si)
 2a6:	20 3d                	and    %bh,(%di)
 2a8:	20 30                	and    %dh,(%bx,%si)
 2aa:	29 20                	sub    %sp,(%bx,%si)
 2ac:	e9 bb 91             	jmp    0x946a
 2af:	e5 ba                	in     $0xba,%ax
 2b1:	95                   	xchg   %ax,%bp
 2b2:	e7 99                	out    %ax,$0x99
 2b4:	bd e5 ad             	mov    $0xade5,%bp
 2b7:	97                   	xchg   %ax,%di
 2b8:	28 42 4c             	sub    %al,0x4c(%bp,%si)
 2bb:	20 3d                	and    %bh,(%di)
 2bd:	20 30                	and    %dh,(%bx,%si)
 2bf:	37                   	aaa    
 2c0:	68 29 0d             	push   $0xd29
 2c3:	0a 09                	or     (%bx,%di),%cl
 2c5:	6d                   	insw   (%dx),%es:(%di)
 2c6:	6f                   	outsw  %ds:(%si),(%dx)
 2c7:	76 20                	jbe    0x2e9
 2c9:	64 6c                	fs insb (%dx),%es:(%di)
 2cb:	2c 20                	sub    $0x20,%al
 2cd:	30 09                	xor    %cl,(%bx,%di)
 2cf:	09 09                	or     %cx,(%bx,%di)
 2d1:	20 3b                	and    %bh,(%bp,%di)
 2d3:	20 e5                	and    %ah,%ch
 2d5:	88 97 e5 8f          	mov    %dl,-0x701b(%bx)
 2d9:	b7 3d                	mov    $0x3d,%bh
 2db:	30 0d                	xor    %cl,(%di)
 2dd:	0a 09                	or     (%bx,%di),%cl
 2df:	6d                   	insw   (%dx),%es:(%di)
 2e0:	6f                   	outsw  %ds:(%si),(%dx)
 2e1:	76 20                	jbe    0x303
 2e3:	64 68 2c 20          	fs push $0x202c
 2e7:	30 09                	xor    %cl,(%bx,%di)
 2e9:	09 20                	or     %sp,(%bx,%si)
 2eb:	20 20                	and    %ah,(%bx,%si)
 2ed:	20 20                	and    %ah,(%bx,%si)
 2ef:	20 20                	and    %ah,(%bx,%si)
 2f1:	3b 20                	cmp    (%bx,%si),%sp
 2f3:	e8 a1 8c             	call   0x8f97
 2f6:	e5 8f                	in     $0x8f,%ax
 2f8:	b7 3d                	mov    $0x3d,%bh
 2fa:	30 0d                	xor    %cl,(%di)
 2fc:	0a 09                	or     (%bx,%di),%cl
 2fe:	6d                   	insw   (%dx),%es:(%di)
 2ff:	6f                   	outsw  %ds:(%si),(%dx)
 300:	76 20                	jbe    0x322
 302:	63 78 2c             	arpl   %di,0x2c(%bx,%si)
 305:	20 4d 65             	and    %cl,0x65(%di)
 308:	73 73                	jae    0x37d
 30a:	61                   	popa   
 30b:	67 65 4c             	addr32 gs dec %sp
 30e:	65 6e                	outsb  %gs:(%si),(%dx)
 310:	67 74 68             	addr32 je 0x37b
 313:	20 20                	and    %ah,(%bx,%si)
 315:	3b 20                	cmp    (%bx,%si),%sp
 317:	43                   	inc    %bx
 318:	58                   	pop    %ax
 319:	20 3d                	and    %bh,(%di)
 31b:	20 e4                	and    %ah,%ah
 31d:	b8 b2 e9             	mov    $0xe9b2,%ax
 320:	95                   	xchg   %ax,%bp
 321:	bf ef bc             	mov    $0xbcef,%di
 324:	88 3d                	mov    %bh,(%di)
 326:	39 ef                	cmp    %bp,%di
 328:	bc 89 0d             	mov    $0xd89,%sp
 32b:	0a 09                	or     (%bx,%di),%cl
 32d:	6d                   	insw   (%dx),%es:(%di)
 32e:	6f                   	outsw  %ds:(%si),(%dx)
 32f:	76 20                	jbe    0x351
 331:	62 70 2c             	bound  %si,0x2c(%bx,%si)
 334:	20 4d 65             	and    %cl,0x65(%di)
 337:	73 73                	jae    0x3ac
 339:	61                   	popa   
 33a:	67 65 09 09          	or     %cx,%gs:(%ecx)
 33e:	20 3b                	and    %bh,(%bp,%di)
 340:	20 42 50             	and    %al,0x50(%bp,%si)
 343:	3d e5 bd             	cmp    $0xbde5,%ax
 346:	93                   	xchg   %ax,%bx
 347:	e5 89                	in     $0x89,%ax
 349:	8d                   	(bad)  
 34a:	e4 b8                	in     $0xb8,%al
 34c:	b2 e7                	mov    $0xe7,%dl
 34e:	9a 84 e5 81 8f       	lcall  $0x8f81,$0xe584
 353:	e7 a7                	out    %ax,$0xa7
 355:	bb e5 9c             	mov    $0x9ce5,%bx
 358:	b0 e5                	mov    $0xe5,%al
 35a:	9d                   	popf   
 35b:	80 0d 0a             	orb    $0xa,(%di)
 35e:	09 69 6e             	or     %bp,0x6e(%bx,%di)
 361:	74 20                	je     0x383
 363:	31 30                	xor    %si,(%bx,%si)
 365:	68 09 09             	push   $0x909
 368:	09 20                	or     %sp,(%bx,%si)
 36a:	3b 20                	cmp    (%bx,%si),%sp
 36c:	42                   	inc    %dx
 36d:	49                   	dec    %cx
 36e:	4f                   	dec    %di
 36f:	53                   	push   %bx
 370:	e7 9a                	out    %ax,$0x9a
 372:	84 31                	test   %dh,(%bx,%di)
 374:	30 68 e5             	xor    %ch,-0x1b(%bx,%si)
 377:	8a 9f e8 83          	mov    -0x7c18(%bx),%bl
 37b:	bd ef bc             	mov    $0xbcef,%bp
 37e:	9a e6 98 be e7       	lcall  $0xe7be,$0x98e6
 383:	a4                   	movsb  %ds:(%si),%es:(%di)
 384:	ba e4 b8             	mov    $0xb8e4,%dx
 387:	80 e8 a1             	sub    $0xa1,%al
 38a:	8c e5                	mov    %fs,%bp
 38c:	ad                   	lods   %ds:(%si),%ax
 38d:	97                   	xchg   %ax,%di
 38e:	e7 ac                	out    %ax,$0xac
 390:	a6                   	cmpsb  %es:(%di),%ds:(%si)
 391:	0d 0a 4c             	or     $0x4c0a,%ax
 394:	6f                   	outsw  %ds:(%si),(%dx)
 395:	61                   	popa   
 396:	64 6e                	outsb  %fs:(%si),(%dx)
 398:	45                   	inc    %bp
 399:	78 3a                	js     0x3d5
 39b:	0d 0a 20             	or     $0x200a,%ax
 39e:	20 20                	and    %ah,(%bx,%si)
 3a0:	20 20                	and    %ah,(%bx,%si)
 3a2:	3b e8                	cmp    %ax,%bp
 3a4:	af                   	scas   %es:(%di),%ax
 3a5:	bb e8 bd             	mov    $0xbde8,%bx
 3a8:	af                   	scas   %es:(%di),%ax
 3a9:	e7 9b                	out    %ax,$0x9b
 3ab:	98                   	cbtw   
 3ac:	e6 88                	out    %al,$0x88
 3ae:	96                   	xchg   %ax,%si
 3af:	e7 a1                	out    %ax,$0xa1
 3b1:	ac                   	lods   %ds:(%si),%al
 3b2:	e7 9b                	out    %ax,$0x9b
 3b4:	98                   	cbtw   
 3b5:	e4 b8                	in     $0xb8,%al
 3b7:	8a e7                	mov    %bh,%ah
 3b9:	9a 84 e8 8b a5       	lcall  $0xa58b,$0xe884
 3be:	e5 b9                	in     $0xb9,%ax
 3c0:	b2 e7                	mov    $0xe7,%dl
 3c2:	89 a9 e7 90          	mov    %bp,-0x6f19(%bx,%di)
 3c6:	86 e6                	xchg   %ah,%dh
 3c8:	89 87 e5 8c          	mov    %ax,-0x731b(%bx)
 3cc:	ba e5 88             	mov    $0x88e5,%dx
 3cf:	b0 e5                	mov    $0xe5,%al
 3d1:	86 85 e5 ad          	xchg   %al,-0x521b(%di)
 3d5:	98                   	cbtw   
 3d6:	e7 9a                	out    %ax,$0x9a
 3d8:	84 45 53             	test   %al,0x53(%di)
 3db:	3a 42 58             	cmp    0x58(%bp,%si),%al
 3de:	e5 a4                	in     $0xa4,%ax
 3e0:	84 ef                	test   %ch,%bh
 3e2:	bc 9a 0d             	mov    $0xd9a,%sp
 3e5:	0a 09                	or     (%bx,%di),%cl
 3e7:	6d                   	insw   (%dx),%es:(%di)
 3e8:	6f                   	outsw  %ds:(%si),(%dx)
 3e9:	76 20                	jbe    0x40b
 3eb:	65 61                	gs popa 
 3ed:	78 2c                	js     0x41b
 3ef:	63 6f 72             	arpl   %bp,0x72(%bx)
 3f2:	65 5f                	gs pop %di
 3f4:	68 65 61             	push   $0x6165
 3f7:	64 65 72 5f          	fs gs jb 0x45a
 3fb:	64 61                	fs popa 
 3fd:	74 61                	je     0x460
 3ff:	5f                   	pop    %di
 400:	73 65                	jae    0x467
 402:	67 6d                	insw   (%dx),%es:(%edi)
 404:	65 6e                	outsb  %gs:(%si),(%dx)
 406:	74 20                	je     0x428
 408:	20 20                	and    %ah,(%bx,%si)
 40a:	20 20                	and    %ah,(%bx,%si)
 40c:	20 20                	and    %ah,(%bx,%si)
 40e:	20 20                	and    %ah,(%bx,%si)
 410:	20 20                	and    %ah,(%bx,%si)
 412:	20 20                	and    %ah,(%bx,%si)
 414:	20 20                	and    %ah,(%bx,%si)
 416:	20 3b                	and    %bh,(%bp,%di)
 418:	e6 ae                	out    %al,$0xae
 41a:	b5 e5                	mov    $0xe5,%ch
 41c:	9c                   	pushf  
 41d:	b0 e5                	mov    $0xe5,%al
 41f:	9d                   	popf   
 420:	80 20 3b             	andb   $0x3b,(%bx,%si)
 423:	20 e5                	and    %ah,%ch
 425:	ad                   	lods   %ds:(%si),%ax
 426:	98                   	cbtw   
 427:	e6 94                	out    %al,$0x94
 429:	be e6 95             	mov    $0x95e6,%si
 42c:	b0 e6                	mov    $0xe6,%al
 42e:	8d ae e7 9a          	lea    -0x6519(%bp),%bp
 432:	84 e5                	test   %ah,%ch
 434:	86 85 e5 ad          	xchg   %al,-0x521b(%di)
 438:	98                   	cbtw   
 439:	e5 9f                	in     $0x9f,%ax
 43b:	ba e5 9c             	mov    $0x9ce5,%dx
 43e:	b0 e5                	mov    $0xe5,%al
 440:	9d                   	popf   
 441:	80 0d 0a             	orb    $0xa,(%di)
 444:	09 6d 6f             	or     %bp,0x6f(%di)
 447:	76 20                	jbe    0x469
 449:	65 73 2c             	gs jae 0x478
 44c:	61                   	popa   
 44d:	78 20                	js     0x46f
 44f:	20 20                	and    %ah,(%bx,%si)
 451:	20 20                	and    %ah,(%bx,%si)
 453:	20 20                	and    %ah,(%bx,%si)
 455:	20 20                	and    %ah,(%bx,%si)
 457:	20 20                	and    %ah,(%bx,%si)
 459:	20 20                	and    %ah,(%bx,%si)
 45b:	20 20                	and    %ah,(%bx,%si)
 45d:	20 3b                	and    %bh,(%bp,%di)
 45f:	e8 ae be             	call   0xc310
 462:	e7 bd                	out    %ax,$0xbd
 464:	ae                   	scas   %es:(%di),%al
 465:	e6 ae                	out    %al,$0xae
 467:	b5 e5                	mov    $0xe5,%ch
 469:	9c                   	pushf  
 46a:	b0 e5                	mov    $0xe5,%al
 46c:	9d                   	popf   
 46d:	80 ef bc             	sub    $0xbc,%bh
 470:	88 e4                	mov    %ah,%ah
 472:	b8 8d e8             	mov    $0xe88d,%ax
 475:	83 bd e7 9b b4       	cmpw   $0xffb4,-0x6419(%di)
 47a:	e6 8e                	out    %al,$0x8e
 47c:	a5                   	movsw  %ds:(%si),%es:(%di)
 47d:	6d                   	insw   (%dx),%es:(%di)
 47e:	6f                   	outsw  %ds:(%si),(%dx)
 47f:	76 20                	jbe    0x4a1
 481:	65 73 2c             	gs jae 0x4b0
 484:	e6 ae                	out    %al,$0xae
 486:	b5 e5                	mov    $0xe5,%ch
 488:	9c                   	pushf  
 489:	b0 e5                	mov    $0xe5,%al
 48b:	9d                   	popf   
 48c:	80 ef bc             	sub    $0xbc,%bh
 48f:	89 0d                	mov    %cx,(%di)
 491:	0a 09                	or     (%bx,%di),%cl
 493:	6d                   	insw   (%dx),%es:(%di)
 494:	6f                   	outsw  %ds:(%si),(%dx)
 495:	76 20                	jbe    0x4b7
 497:	62 78 2c             	bound  %di,0x2c(%bx,%si)
 49a:	30 20                	xor    %ah,(%bx,%si)
 49c:	3b e5                	cmp    %bp,%sp
 49e:	81 8f e7 a7 bb e5    	orw    $0xe5bb,-0x5819(%bx)
 4a4:	9c                   	pushf  
 4a5:	b0 e5                	mov    $0xe5,%al
 4a7:	9d                   	popf   
 4a8:	80 3b 20             	cmpb   $0x20,(%bp,%di)
 4ab:	e5 ad                	in     $0xad,%ax
 4ad:	98                   	cbtw   
 4ae:	e6 94                	out    %al,$0x94
 4b0:	be e6 95             	mov    $0x95e6,%si
 4b3:	b0 e6                	mov    $0xe6,%al
 4b5:	8d ae e7 9a          	lea    -0x6519(%bp),%bp
 4b9:	84 e5                	test   %ah,%ch
 4bb:	86 85 e5 ad          	xchg   %al,-0x521b(%di)
 4bf:	98                   	cbtw   
 4c0:	e5 81                	in     $0x81,%ax
 4c2:	8f                   	(bad)  
 4c3:	e7 a7                	out    %ax,$0xa7
 4c5:	bb e5 9c             	mov    $0x9ce5,%bx
 4c8:	b0 e5                	mov    $0xe5,%al
 4ca:	9d                   	popf   
 4cb:	80 0d 0a             	orb    $0xa,(%di)
 4ce:	09 6d 6f             	or     %bp,0x6f(%di)
 4d1:	76 20                	jbe    0x4f3
 4d3:	61                   	popa   
 4d4:	68 2c 32             	push   $0x322c
 4d7:	20 20                	and    %ah,(%bx,%si)
 4d9:	20 20                	and    %ah,(%bx,%si)
 4db:	20 20                	and    %ah,(%bx,%si)
 4dd:	20 20                	and    %ah,(%bx,%si)
 4df:	20 20                	and    %ah,(%bx,%si)
 4e1:	20 20                	and    %ah,(%bx,%si)
 4e3:	20 20                	and    %ah,(%bx,%si)
 4e5:	20 20                	and    %ah,(%bx,%si)
 4e7:	20 3b                	and    %bh,(%bp,%di)
 4e9:	20 e5                	and    %ah,%ch
 4eb:	8a 9f e8 83          	mov    -0x7c18(%bx),%bl
 4ef:	bd e5 8f             	mov    $0x8fe5,%bp
 4f2:	b7 0d                	mov    $0xd,%bh
 4f4:	0a 09                	or     (%bx,%di),%cl
 4f6:	6d                   	insw   (%dx),%es:(%di)
 4f7:	6f                   	outsw  %ds:(%si),(%dx)
 4f8:	76 20                	jbe    0x51a
 4fa:	61                   	popa   
 4fb:	6c                   	insb   (%dx),%es:(%di)
 4fc:	2c 31                	sub    $0x31,%al
 4fe:	30 20                	xor    %ah,(%bx,%si)
 500:	20 20                	and    %ah,(%bx,%si)
 502:	20 20                	and    %ah,(%bx,%si)
 504:	20 20                	and    %ah,(%bx,%si)
 506:	20 20                	and    %ah,(%bx,%si)
 508:	20 20                	and    %ah,(%bx,%si)
 50a:	20 20                	and    %ah,(%bx,%si)
 50c:	20 20                	and    %ah,(%bx,%si)
 50e:	20 20                	and    %ah,(%bx,%si)
 510:	3b e6                	cmp    %si,%sp
 512:	89 87 e5 8c          	mov    %ax,-0x731b(%bx)
 516:	ba e6 95             	mov    $0x95e6,%dx
 519:	b0 0d                	mov    $0xd,%al
 51b:	0a 09                	or     (%bx,%di),%cl
 51d:	6d                   	insw   (%dx),%es:(%di)
 51e:	6f                   	outsw  %ds:(%si),(%dx)
 51f:	76 20                	jbe    0x541
 521:	64 6c                	fs insb (%dx),%es:(%di)
 523:	2c 30                	sub    $0x30,%al
 525:	20 20                	and    %ah,(%bx,%si)
 527:	20 20                	and    %ah,(%bx,%si)
 529:	20 20                	and    %ah,(%bx,%si)
 52b:	20 20                	and    %ah,(%bx,%si)
 52d:	20 20                	and    %ah,(%bx,%si)
 52f:	20 20                	and    %ah,(%bx,%si)
 531:	20 20                	and    %ah,(%bx,%si)
 533:	20 20                	and    %ah,(%bx,%si)
 535:	20 3b                	and    %bh,(%bp,%di)
 537:	e9 a9 b1             	jmp    0xb6e3
 53a:	e5 8a                	in     $0x8a,%ax
 53c:	a8 e5                	test   $0xe5,%al
 53e:	99                   	cwtd   
 53f:	a8 e5                	test   $0xe5,%al
 541:	8f                   	(bad)  
 542:	b7 20                	mov    $0x20,%bh
 544:	3b 20                	cmp    (%bx,%si),%sp
 546:	e8 bd af             	call   0xb506
 549:	e7 9b                	out    %ax,$0x9b
 54b:	98                   	cbtw   
 54c:	e4 b8                	in     $0xb8,%al
 54e:	ba 30 ef             	mov    $0xef30,%dx
 551:	bc 8c e7             	mov    $0xe78c,%sp
 554:	a1 ac e7             	mov    0xe7ac,%ax
 557:	9b                   	fwait
 558:	98                   	cbtw   
 559:	e5 92                	in     $0x92,%ax
 55b:	8c 55 e7             	mov    %ss,-0x19(%di)
 55e:	9b                   	fwait
 55f:	98                   	cbtw   
 560:	e4 b8                	in     $0xb8,%al
 562:	ba 38 30             	mov    $0x3038,%dx
 565:	48                   	dec    %ax
 566:	0d 0a 09             	or     $0x90a,%ax
 569:	6d                   	insw   (%dx),%es:(%di)
 56a:	6f                   	outsw  %ds:(%si),(%dx)
 56b:	76 20                	jbe    0x58d
 56d:	64 68 2c 30          	fs push $0x302c
 571:	20 20                	and    %ah,(%bx,%si)
 573:	20 20                	and    %ah,(%bx,%si)
 575:	20 20                	and    %ah,(%bx,%si)
 577:	20 20                	and    %ah,(%bx,%si)
 579:	20 20                	and    %ah,(%bx,%si)
 57b:	20 20                	and    %ah,(%bx,%si)
 57d:	20 20                	and    %ah,(%bx,%si)
 57f:	20 20                	and    %ah,(%bx,%si)
 581:	20 3b                	and    %bh,(%bp,%di)
 583:	e7 a3                	out    %ax,$0xa3
 585:	81 e5 a4 b4          	and    $0xb4a4,%bp
 589:	e5 8f                	in     $0x8f,%ax
 58b:	b7 20                	mov    $0x20,%bh
 58d:	3b 20                	cmp    (%bx,%si),%sp
 58f:	e8 b5 b7             	call   0xbd47
 592:	e5 a7                	in     $0xa7,%ax
 594:	8b e7                	mov    %di,%sp
 596:	bc 96 e5             	mov    $0xe596,%sp
 599:	8f                   	(bad)  
 59a:	b7 e4                	mov    $0xe4,%bh
 59c:	b8 ba 30             	mov    $0x30ba,%ax
 59f:	0d 0a 09             	or     $0x90a,%ax
 5a2:	6d                   	insw   (%dx),%es:(%di)
 5a3:	6f                   	outsw  %ds:(%si),(%dx)
 5a4:	76 20                	jbe    0x5c6
 5a6:	63 68 2c             	arpl   %bp,0x2c(%bx,%si)
 5a9:	30 20                	xor    %ah,(%bx,%si)
 5ab:	20 20                	and    %ah,(%bx,%si)
 5ad:	20 20                	and    %ah,(%bx,%si)
 5af:	20 20                	and    %ah,(%bx,%si)
 5b1:	20 20                	and    %ah,(%bx,%si)
 5b3:	20 20                	and    %ah,(%bx,%si)
 5b5:	20 20                	and    %ah,(%bx,%si)
 5b7:	20 20                	and    %ah,(%bx,%si)
 5b9:	20 20                	and    %ah,(%bx,%si)
 5bb:	3b e6                	cmp    %si,%sp
 5bd:	9f                   	lahf   
 5be:	b1 e9                	mov    $0xe9,%cl
 5c0:	9d                   	popf   
 5c1:	a2 e5 8f             	mov    %al,0x8fe5
 5c4:	b7 20                	mov    $0x20,%bh
 5c6:	3b 20                	cmp    (%bx,%si),%sp
 5c8:	e8 b5 b7             	call   0xbd80
 5cb:	e5 a7                	in     $0xa7,%ax
 5cd:	8b e7                	mov    %di,%sp
 5cf:	bc 96 e5             	mov    $0xe596,%sp
 5d2:	8f                   	(bad)  
 5d3:	b7 e4                	mov    $0xe4,%bh
 5d5:	b8 ba 30             	mov    $0x30ba,%ax
 5d8:	0d 0a 09             	or     $0x90a,%ax
 5db:	6d                   	insw   (%dx),%es:(%di)
 5dc:	6f                   	outsw  %ds:(%si),(%dx)
 5dd:	76 20                	jbe    0x5ff
 5df:	63 6c 2c             	arpl   %bp,0x2c(%si)
 5e2:	32 20                	xor    (%bx,%si),%ah
 5e4:	20 20                	and    %ah,(%bx,%si)
 5e6:	20 20                	and    %ah,(%bx,%si)
 5e8:	20 20                	and    %ah,(%bx,%si)
 5ea:	20 20                	and    %ah,(%bx,%si)
 5ec:	20 20                	and    %ah,(%bx,%si)
 5ee:	20 20                	and    %ah,(%bx,%si)
 5f0:	20 20                	and    %ah,(%bx,%si)
 5f2:	20 20                	and    %ah,(%bx,%si)
 5f4:	3b e8                	cmp    %ax,%bp
 5f6:	b5 b7                	mov    $0xb7,%ch
 5f8:	e5 a7                	in     $0xa7,%ax
 5fa:	8b e6                	mov    %si,%sp
 5fc:	89 87 e5 8c          	mov    %ax,-0x731b(%bx)
 600:	ba e5 8f             	mov    $0x8fe5,%dx
 603:	b7 20                	mov    $0x20,%bh
 605:	3b 20                	cmp    (%bx,%si),%sp
 607:	e8 b5 b7             	call   0xbdbf
 60a:	e5 a7                	in     $0xa7,%ax
 60c:	8b e7                	mov    %di,%sp
 60e:	bc 96 e5             	mov    $0xe596,%sp
 611:	8f                   	(bad)  
 612:	b7 e4                	mov    $0xe4,%bh
 614:	b8 ba 31             	mov    $0x31ba,%ax
 617:	0d 0a 09             	or     $0x90a,%ax
 61a:	69 6e 74 20 31       	imul   $0x3120,0x74(%bp),%bp
 61f:	33 48 20             	xor    0x20(%bx,%si),%cx
 622:	3b 20                	cmp    (%bx,%si),%sp
 624:	20 20                	and    %ah,(%bx,%si)
 626:	20 20                	and    %ah,(%bx,%si)
 628:	20 20                	and    %ah,(%bx,%si)
 62a:	20 20                	and    %ah,(%bx,%si)
 62c:	20 20                	and    %ah,(%bx,%si)
 62e:	20 20                	and    %ah,(%bx,%si)
 630:	20 20                	and    %ah,(%bx,%si)
 632:	20 e8                	and    %ch,%al
 634:	b0 83                	mov    $0x83,%al
 636:	e7 94                	out    %ax,$0x94
 638:	a8 e8                	test   $0xe8,%al
 63a:	af                   	scas   %es:(%di),%ax
 63b:	bb e7 a3             	mov    $0xa3e7,%bx
 63e:	81 e7 9b 98          	and    $0x989b,%di
 642:	42                   	inc    %dx
 643:	49                   	dec    %cx
 644:	4f                   	dec    %di
 645:	53                   	push   %bx
 646:	e7 9a                	out    %ax,$0x9a
 648:	84 31                	test   %dh,(%bx,%di)
 64a:	33 68 e5             	xor    -0x1b(%bx,%si),%bp
 64d:	8a 9f e8 83          	mov    -0x7c18(%bx),%bl
 651:	bd 0d 0a             	mov    $0xa0d,%bp
 654:	09 3b                	or     %di,(%bp,%di)
 656:	20 e7                	and    %ah,%bh
 658:	b3 bb                	mov    $0xbb,%bl
 65a:	e7 bb                	out    %ax,$0xbb
 65c:	9f                   	lahf   
 65d:	e5 86                	in     $0x86,%ax
 65f:	85 e6                	test   %sp,%si
 661:	a0 b8 e5             	mov    0xe5b8,%al
 664:	b7 b2                	mov    $0xb2,%bh
 666:	e5 8a                	in     $0x8a,%ax
 668:	a0 e8 bd             	mov    0xbde8,%al
 66b:	bd e5 88             	mov    $0x88e5,%bp
 66e:	b0 e6                	mov    $0xe6,%al
 670:	8c 87 e5 ae          	mov    %es,-0x511b(%bx)
 674:	9a e5 86 85 e5       	lcall  $0xe585,$0x86e5
 679:	ad                   	lods   %ds:(%si),%ax
 67a:	98                   	cbtw   
 67b:	e5 8c                	in     $0x8c,%ax
 67d:	ba e5 9f             	mov    $0x9fe5,%dx
 680:	9f                   	lahf   
 681:	e4 b8                	in     $0xb8,%al
 683:	ad                   	lods   %ds:(%si),%ax
 684:	0d 0a 3b             	or     $0x3b0a,%ax
 687:	20 e8                	and    %ch,%al
 689:	bd ac e5             	mov    $0xe5ac,%bp
 68c:	85 a5 e7 b3          	test   %sp,-0x4c19(%di)
 690:	bb e7 bb             	mov    $0xbbe7,%bx
 693:	9f                   	lahf   
 694:	e5 86                	in     $0x86,%ax
 696:	85 e6                	test   %sp,%si
 698:	a0 b8 0d             	mov    0xdb8,%al
 69b:	0a 72 65             	or     0x65(%bp,%si),%dh
 69e:	64 69 72 65 63 74    	imul   $0x7463,%fs:0x65(%bp,%si),%si
 6a4:	3a 0d                	cmp    (%di),%cl
 6a6:	0a 09                	or     (%bx,%di),%cl
 6a8:	6a 6d                	push   $0x6d
 6aa:	70 20                	jo     0x6cc
 6ac:	24 0d                	and    $0xd,%al
 6ae:	0a 09                	or     (%bx,%di),%cl
 6b0:	6a 6d                	push   $0x6d
 6b2:	70 20                	jo     0x6d4
 6b4:	6b 65 72 6e          	imul   $0x6e,0x72(%di),%sp
 6b8:	65 6c                	gs insb (%dx),%es:(%di)
 6ba:	5f                   	pop    %di
 6bb:	63 6f 64             	arpl   %bp,0x64(%bx)
 6be:	65 5f                	gs pop %di
 6c0:	73 65                	jae    0x727
 6c2:	67 6d                	insw   (%dx),%es:(%edi)
 6c4:	65 6e                	outsb  %gs:(%si),(%dx)
 6c6:	74 3a                	je     0x702
 6c8:	6b 65 72 6e          	imul   $0x6e,0x72(%di),%sp
 6cc:	65 6c                	gs insb (%dx),%es:(%di)
 6ce:	5f                   	pop    %di
 6cf:	63 6f 64             	arpl   %bp,0x64(%bx)
 6d2:	65 5f                	gs pop %di
 6d4:	65 6e                	outsb  %gs:(%si),(%dx)
 6d6:	74 72                	je     0x74a
 6d8:	79 0d                	jns    0x6e7
 6da:	0a 09                	or     (%bx,%di),%cl
 6dc:	3b 20                	cmp    (%bx,%si),%sp
 6de:	6a 6d                	push   $0x6d
 6e0:	70 20                	jo     0x702
 6e2:	31 30                	xor    %si,(%bx,%si)
 6e4:	30 30                	xor    %dh,(%bx,%si)
 6e6:	3a 30                	cmp    (%bx,%si),%dh
 6e8:	30 30                	xor    %dh,(%bx,%si)
 6ea:	30 0d                	xor    %cl,(%di)
 6ec:	0a 0d                	or     (%di),%cl
 6ee:	0a 4d 65             	or     0x65(%di),%cl
 6f1:	73 73                	jae    0x766
 6f3:	61                   	popa   
 6f4:	67 65 3a 0d 0a 09 64 	addr32 cmp %gs:0x6264090a,%cl
 6fb:	62 
 6fc:	20 27                	and    %ah,(%bx)
 6fe:	48                   	dec    %ax
 6ff:	65 6c                	gs insb (%dx),%es:(%di)
 701:	6c                   	insb   (%dx),%es:(%di)
 702:	6f                   	outsw  %ds:(%si),(%dx)
 703:	2c 20                	sub    $0x20,%al
 705:	4d                   	dec    %bp
 706:	79 4f                	jns    0x757
 708:	73 20                	jae    0x72a
 70a:	69 73 20 6c 6f       	imul   $0x6f6c,0x20(%bp,%di),%si
 70f:	61                   	popa   
 710:	64 69 6e 67 20 73    	imul   $0x7320,%fs:0x67(%bp),%bp
 716:	79 73                	jns    0x78b
 718:	74 65                	je     0x77f
 71a:	6d                   	insw   (%dx),%es:(%di)
 71b:	20 63 6f             	and    %ah,0x6f(%bp,%di)
 71e:	72 65                	jb     0x785
 720:	2e 27                	cs daa 
 722:	0d 0a 0d             	or     $0xd0a,%ax
 725:	0a 4d 65             	or     0x65(%di),%cl
 728:	73 73                	jae    0x79d
 72a:	61                   	popa   
 72b:	67 65 4c             	addr32 gs dec %sp
 72e:	65 6e                	outsb  %gs:(%si),(%dx)
 730:	67 74 68             	addr32 je 0x79b
 733:	20 20                	and    %ah,(%bx,%si)
 735:	65 71 75             	gs jno 0x7ad
 738:	20 28                	and    %ch,(%bx,%si)
 73a:	24 2d                	and    $0x2d,%al
 73c:	4d                   	dec    %bp
 73d:	65 73 73             	gs jae 0x7b3
 740:	61                   	popa   
 741:	67 65 29 0d 0a 74 69 	addr32 sub %cx,%gs:0x6d69740a
 748:	6d 
 749:	65 73 20             	gs jae 0x76c
 74c:	35 31 30             	xor    $0x3031,%ax
 74f:	2d 28 24             	sub    $0x2428,%ax
 752:	2d 24 24             	sub    $0x2424,%ax
 755:	29 20                	sub    %sp,(%bx,%si)
 757:	64 62 20             	bound  %sp,%fs:(%bx,%si)
 75a:	30 0d                	xor    %cl,(%di)
 75c:	0a 64 62             	or     0x62(%si),%ah
 75f:	20 30                	and    %dh,(%bx,%si)
 761:	78 35                	js     0x798
 763:	35 2c 30             	xor    $0x302c,%ax
 766:	78 61                	js     0x7c9
 768:	61                   	popa   
 769:	0d 0a 0d             	or     $0xd0a,%ax
 76c:	0a 0d                	or     (%di),%cl
 76e:	0a 0d                	or     (%di),%cl
 770:	0a 0d                	or     (%di),%cl
 772:	0a 0d                	or     (%di),%cl
 774:	0a                   	.byte 0xa
